(lp0
(S'BasalACh2'
p1
S'compartment1'
p2
S'BLL'
p3
tp4
a(S'IntermediateACh'
p5
g2
S'IL'
p6
tp7
a(S'ActiveACh'
p8
g2
S'AL'
p9
tp10
a(S'Active'
p11
g2
S'A'
p12
tp13
a(S'BasalACh'
p14
g2
S'BL'
p15
tp16
a(S'Basal'
p17
g2
S'B'
p18
tp19
a(S'DesensitisedACh2'
p20
g2
S'DLL'
p21
tp22
a(S'Desensitised'
p23
g2
S'D'
p24
tp25
a(S'IntermediateACh2'
p26
g2
S'ILL'
p27
tp28
a(S'DesensitisedACh'
p29
g2
S'DL'
p30
tp31
a(S'Intermediate'
p32
g2
S'I'
p33
tp34
a(S'ActiveACh2'
p35
g2
S'ALL'
p36
tp37
a.