(lp0
(lp1
S'BIOMD0000000001.xml'
p2
aS'c'
p3
aF0.3333333333333333
aF1.0
aF12.0
aI00
aa(lp4
S'BIOMD0000000002.xml'
p5
aS'a'
p6
aF0.3333333333333333
aF1.0
aF13.0
aI01
aa(lp7
S'BIOMD0000000003.xml'
p8
aS'0'
p9
aF0.0
aF0.0
aF3.0
aI01
aa(lp10
S'BIOMD0000000004.xml'
p11
aS'7'
p12
aF0.26666666666666666
aF1.0
aF5.0
aI01
aa(lp13
S'BIOMD0000000005.xml'
p14
ag12
aF0.2222222222222222
aF0.6666666666666666
aF9.0
aI01
aa(lp15
S'BIOMD0000000006.xml'
p16
ag9
aF0.0
aF0.0
aF4.0
aI01
aa(lp17
S'BIOMD0000000007.xml'
p18
ag6
aF0.10606060606060606
aF0.7727272727272727
aF22.0
aI01
aa(lp19
S'BIOMD0000000008.xml'
p20
ag6
aF0.2
aF1.0
aF5.0
aI01
aa(lp21
S'BIOMD0000000009.xml'
p22
ag6
aF0.28205128205128205
aF0.8461538461538461
aF26.0
aI01
aa(lp23
S'BIOMD0000000010.xml'
p24
ag12
aF0.3333333333333333
aF1.0
aF8.0
aI01
aa(lp25
S'BIOMD0000000011.xml'
p26
ag6
aF0.3333333333333333
aF1.0
aF22.0
aI01
aa(lp27
S'BIOMD0000000012.xml'
p28
ag6
aF0.3333333333333333
aF1.0
aF6.0
aI01
aa(lp29
S'BIOMD0000000013.xml'
p30
ag6
aF0.1234567901234568
aF1.0
aF27.0
aI01
aa(lp31
S'BIOMD0000000014.xml'
p32
ag6
aF0.33333333333333337
aF1.0
aF86.0
aI01
aa(lp33
S'BIOMD0000000015.xml'
p34
aS'5'
p35
aF0.16666666666666666
aF0.9444444444444444
aF18.0
aI01
aa(lp36
S'BIOMD0000000016.xml'
p37
ag9
aF0.0
aF0.0
aF7.0
aI01
aa(lp38
S'BIOMD0000000017.xml'
p39
ag35
aF0.12280701754385966
aF1.0
aF19.0
aI01
aa(lp40
S'BIOMD0000000018.xml'
p41
ag9
aF0.0
aF0.0
aF33.0
aI01
aa(lp42
S'BIOMD0000000019.xml'
p43
ag12
aF0.30333333333333334
aF0.94
aF100.0
aI00
aa(lp44
S'BIOMD0000000021.xml'
p45
ag6
aF0.1
aF1.0
aF10.0
aI01
aa(lp46
S'BIOMD0000000022.xml'
p47
ag6
aF0.15384615384615385
aF0.8461538461538461
aF13.0
aI01
aa(lp48
S'BIOMD0000000023.xml'
p49
ag6
aF0.12820512820512822
aF1.0
aF13.0
aI01
aa(lp50
S'BIOMD0000000024.xml'
p51
ag9
aF0.0
aF0.0
aF3.0
aI01
aa(lp52
S'BIOMD0000000025.xml'
p53
ag9
aF0.0
aF0.0
aF4.0
aI01
aa(lp54
S'BIOMD0000000026.xml'
p55
ag6
aF0.3333333333333333
aF1.0
aF11.0
aI01
aa(lp56
S'BIOMD0000000027.xml'
p57
ag35
aF0.2
aF0.6
aF5.0
aI01
aa(lp58
S'BIOMD0000000028.xml'
p59
ag6
aF0.3333333333333333
aF1.0
aF16.0
aI01
aa(lp60
S'BIOMD0000000029.xml'
p61
ag12
aF0.1111111111111111
aF0.6666666666666666
aF6.0
aI00
aa(lp62
S'BIOMD0000000030.xml'
p63
ag6
aF0.3333333333333333
aF1.0
aF18.0
aI01
aa(lp64
S'BIOMD0000000031.xml'
p65
ag35
aF0.16666666666666666
aF0.5
aF6.0
aI01
aa(lp66
S'BIOMD0000000032.xml'
p67
ag35
aF0.21621621621621623
aF1.0
aF37.0
aI01
aa(lp68
S'BIOMD0000000033.xml'
p69
ag6
aF0.0625
aF0.875
aF32.0
aI01
aa(lp70
S'BIOMD0000000034.xml'
p71
ag9
aF0.0
aF0.0
aF9.0
aI01
aa(lp72
S'BIOMD0000000035.xml'
p73
ag6
aF0.23333333333333334
aF0.9
aF10.0
aI01
aa(lp74
S'BIOMD0000000036.xml'
p75
ag9
aF0.0
aF0.0
aF3.0
aI01
aa(lp76
S'BIOMD0000000037.xml'
p77
ag6
aF0.08333333333333333
aF1.0
aF12.0
aI01
aa(lp78
S'BIOMD0000000038.xml'
p79
ag35
aF0.3137254901960784
aF1.0
aF17.0
aI01
aa(lp80
S'BIOMD0000000039.xml'
p81
ag6
aF0.2
aF1.0
aF5.0
aI01
aa(lp82
S'BIOMD0000000040.xml'
p83
ag9
aF0.0
aF0.0
aF5.0
aI01
aa(lp84
S'BIOMD0000000041.xml'
p85
ag12
aF0.33333333333333337
aF1.0
aF10.0
aI01
aa(lp86
S'BIOMD0000000042.xml'
p87
ag6
aF0.04444444444444444
aF1.0
aF15.0
aI01
aa(lp88
S'BIOMD0000000043.xml'
p89
ag9
aF0.0
aF0.0
aF5.0
aI01
aa(lp90
S'BIOMD0000000044.xml'
p91
ag9
aF0.0
aF0.0
aF4.0
aI01
aa(lp92
S'BIOMD0000000045.xml'
p93
ag9
aF0.0
aF0.0
aF4.0
aI01
aa(lp94
S'BIOMD0000000046.xml'
p95
ag6
aF0.14583333333333334
aF1.0
aF16.0
aI01
aa(lp96
S'BIOMD0000000047.xml'
p97
ag9
aF0.0
aF0.0
aF2.0
aI01
aa(lp98
S'BIOMD0000000048.xml'
p99
aS'9'
p100
aF0.33333333333333337
aF1.0
aF23.0
aI01
aa(lp101
S'BIOMD0000000049.xml'
p102
ag6
aF0.2962962962962963
aF0.9797979797979798
aF99.0
aI01
aa(lp103
S'BIOMD0000000050.xml'
p104
ag12
aF0.19047619047619047
aF1.0
aF14.0
aI01
aa(lp105
S'BIOMD0000000051.xml'
p106
ag9
aF0.0
aF0.0
aF18.0
aI01
aa(lp107
S'BIOMD0000000052.xml'
p108
ag12
aF0.30303030303030304
aF1.0
aF11.0
aI01
aa(lp109
S'BIOMD0000000053.xml'
p110
ag6
aF0.2777777777777778
aF1.0
aF6.0
aI01
aa(lp111
S'BIOMD0000000054.xml'
p112
ag9
aF0.0
aF0.0
aF3.0
aI01
aa(lp113
S'BIOMD0000000055.xml'
p114
ag9
aF0.0
aF0.0
aF13.0
aI01
aa(lp115
S'BIOMD0000000056.xml'
p116
ag35
aF0.16049382716049382
aF0.7407407407407407
aF54.0
aI01
aa(lp117
S'BIOMD0000000057.xml'
p118
ag9
aF0.0
aF0.0
aF6.0
aI01
aa(lp119
S'BIOMD0000000058.xml'
p120
ag9
aF0.0
aF0.0
aF4.0
aI01
aa(lp121
S'BIOMD0000000059.xml'
p122
ag9
aF0.0
aF0.0
aF6.0
aI01
aa(lp123
S'BIOMD0000000060.xml'
p124
ag9
aF0.0
aF0.0
aF4.0
aI01
aa(lp125
S'BIOMD0000000061.xml'
p126
ag6
aF0.12
aF1.0
aF25.0
aI01
aa(lp127
S'BIOMD0000000062.xml'
p128
ag9
aF0.0
aF0.0
aF4.0
aI01
aa(lp129
S'BIOMD0000000063.xml'
p130
ag6
aF0.2592592592592593
aF1.0
aF9.0
aI01
aa(lp131
S'BIOMD0000000064.xml'
p132
ag12
aF0.15384615384615385
aF0.8076923076923077
aF26.0
aI01
aa(lp133
S'BIOMD0000000065.xml'
p134
ag9
aF0.0
aF0.0
aF9.0
aI01
aa(lp135
S'BIOMD0000000066.xml'
p136
ag6
aF0.15151515151515152
aF1.0
aF11.0
aI01
aa(lp137
S'BIOMD0000000067.xml'
p138
ag9
aF0.0
aF0.0
aF8.0
aI01
aa(lp139
S'BIOMD0000000068.xml'
p140
ag6
aF0.1111111111111111
aF0.6666666666666666
aF9.0
aI01
aa(lp141
S'BIOMD0000000069.xml'
p142
aS'6'
p143
aF0.13333333333333333
aF1.0
aF10.0
aI01
aa(lp144
S'BIOMD0000000070.xml'
p145
ag35
aF0.17777777777777778
aF1.0
aF45.0
aI00
aa(lp146
S'BIOMD0000000071.xml'
p147
ag12
aF0.13580246913580246
aF0.6296296296296297
aF27.0
aI01
aa(lp148
S'BIOMD0000000072.xml'
p149
ag6
aF0.2857142857142857
aF1.0
aF7.0
aI01
aa(lp150
S'BIOMD0000000073.xml'
p151
ag35
aF0.2708333333333333
aF1.0
aF16.0
aI00
aa(lp152
S'BIOMD0000000074.xml'
p153
ag35
aF0.22807017543859648
aF1.0
aF19.0
aI00
aa(lp154
S'BIOMD0000000075.xml'
p155
ag6
aF0.15384615384615385
aF0.7692307692307693
aF13.0
aI01
aa(lp156
S'BIOMD0000000076.xml'
p157
ag9
aF0.0
aF0.0
aF3.0
aI01
aa(lp158
S'BIOMD0000000077.xml'
p159
ag6
aF0.25
aF0.875
aF8.0
aI01
aa(lp160
S'BIOMD0000000078.xml'
p161
ag35
aF0.2708333333333333
aF1.0
aF16.0
aI00
aa(lp162
S'BIOMD0000000079.xml'
p163
ag9
aF0.0
aF0.0
aF3.0
aI01
aa(lp164
S'BIOMD0000000080.xml'
p165
ag6
aF0.26666666666666666
aF1.0
aF10.0
aI01
aa(lp166
S'BIOMD0000000081.xml'
p167
ag6
aF0.21739130434782608
aF0.8695652173913043
aF23.0
aI01
aa(lp168
S'BIOMD0000000082.xml'
p169
ag6
aF0.26666666666666666
aF1.0
aF10.0
aI01
aa(lp170
S'BIOMD0000000083.xml'
p171
ag35
aF0.22807017543859648
aF1.0
aF19.0
aI01
aa(lp172
S'BIOMD0000000084.xml'
p173
ag35
aF0.25
aF1.0
aF8.0
aI01
aa(lp174
S'BIOMD0000000085.xml'
p175
ag6
aF0.3137254901960784
aF1.0
aF17.0
aI01
aa(lp176
S'BIOMD0000000086.xml'
p177
ag6
aF0.3137254901960784
aF1.0
aF17.0
aI01
aa(lp178
S'BIOMD0000000087.xml'
p179
ag6
aF0.06060606060606061
aF1.0
aF55.0
aI01
aa(lp180
S'BIOMD0000000088.xml'
p181
ag12
aF0.27301587301587305
aF0.9714285714285714
aF105.0
aI01
aa(lp182
S'BIOMD0000000089.xml'
p183
ag9
aF0.0
aF0.0
aF16.0
aI01
aa(lp184
S'BIOMD0000000090.xml'
p185
ag6
aF0.10256410256410256
aF1.0
aF26.0
aI00
aa(lp186
S'BIOMD0000000091.xml'
p187
ag6
aF0.25
aF0.9375
aF16.0
aI01
aa(lp188
S'BIOMD0000000092.xml'
p189
ag6
aF0.3333333333333333
aF1.0
aF4.0
aI01
aa(lp190
S'BIOMD0000000093.xml'
p191
ag6
aF0.3137254901960784
aF1.0
aF34.0
aI01
aa(lp192
S'BIOMD0000000094.xml'
p193
ag6
aF0.3137254901960784
aF1.0
aF34.0
aI01
aa(lp194
S'BIOMD0000000095.xml'
p195
ag9
aF0.0
aF0.0
aF19.0
aI01
aa(lp196
S'BIOMD0000000096.xml'
p197
ag9
aF0.0
aF0.0
aF19.0
aI01
aa(lp198
S'BIOMD0000000097.xml'
p199
ag9
aF0.0
aF0.0
aF19.0
aI01
aa(lp200
S'BIOMD0000000098.xml'
p201
ag9
aF0.0
aF0.0
aF2.0
aI01
aa(lp202
S'BIOMD0000000099.xml'
p203
ag9
aF0.0
aF0.0
aF7.0
aI01
aa(lp204
S'BIOMD0000000100.xml'
p205
ag9
aF0.0
aF0.0
aF5.0
aI01
aa(lp206
S'BIOMD0000000101.xml'
p207
ag12
aF0.2222222222222222
aF1.0
aF6.0
aI01
aa(lp208
S'BIOMD0000000102.xml'
p209
ag9
aF0.3333333333333333
aF1.0
aF13.0
aI01
aa(lp210
S'BIOMD0000000103.xml'
p211
ag9
aF0.33333333333333337
aF1.0
aF17.0
aI01
aa(lp212
S'BIOMD0000000104.xml'
p213
ag9
aF0.0
aF0.0
aF6.0
aI01
aa(lp214
S'BIOMD0000000105.xml'
p215
ag12
aF0.15384615384615385
aF1.0
aF39.0
aI01
aa(lp216
S'BIOMD0000000106.xml'
p217
ag9
aF0.0
aF0.0
aF25.0
aI01
aa(lp218
S'BIOMD0000000107.xml'
p219
ag143
aF0.2380952380952381
aF0.8571428571428571
aF14.0
aI01
aa(lp220
S'BIOMD0000000108.xml'
p221
ag6
aF0.1111111111111111
aF0.7777777777777778
aF9.0
aI01
aa(lp222
S'BIOMD0000000109.xml'
p223
ag9
aF0.0
aF0.0
aF57.0
aI01
aa(lp224
S'BIOMD0000000110.xml'
p225
ag35
aF0.08888888888888888
aF0.8
aF15.0
aI01
aa(lp226
S'BIOMD0000000111.xml'
p227
ag9
aF0.0
aF0.0
aF10.0
aI01
aa(lp228
S'BIOMD0000000112.xml'
p229
ag12
aF0.26666666666666666
aF1.0
aF10.0
aI01
aa(lp230
S'BIOMD0000000113.xml'
p231
ag9
aF0.0
aF0.0
aF4.0
aI01
aa(lp232
S'BIOMD0000000114.xml'
p233
ag9
aF0.0
aF0.0
aF2.0
aI01
aa(lp234
S'BIOMD0000000115.xml'
p235
ag9
aF0.0
aF0.0
aF2.0
aI01
aa(lp236
S'BIOMD0000000116.xml'
p237
ag9
aF0.0
aF0.0
aF6.0
aI01
aa(lp238
S'BIOMD0000000117.xml'
p239
ag9
aF0.0
aF0.0
aF2.0
aI01
aa(lp240
S'BIOMD0000000119.xml'
p241
ag9
aF0.0
aF0.0
aF1.0
aI01
aa(lp242
S'BIOMD0000000120.xml'
p243
ag9
aF0.0
aF0.0
aF5.0
aI01
aa(lp244
S'BIOMD0000000121.xml'
p245
ag9
aF0.0
aF0.0
aF6.0
aI01
aa(lp246
S'BIOMD0000000122.xml'
p247
ag6
aF0.2380952380952381
aF1.0
aF14.0
aI01
aa(lp248
S'BIOMD0000000123.xml'
p249
ag6
aF0.2380952380952381
aF1.0
aF14.0
aI01
aa(lp250
S'BIOMD0000000124.xml'
p251
ag9
aF0.0
aF0.0
aF2.0
aI01
aa(lp252
S'BIOMD0000000125.xml'
p253
ag9
aF0.0
aF0.0
aF5.0
aI01
aa(lp254
S'BIOMD0000000126.xml'
p255
ag9
aF0.0
aF0.0
aF9.0
aI01
aa(lp256
S'BIOMD0000000128.xml'
p257
ag9
aF0.0
aF0.0
aF3.0
aI01
aa(lp258
S'BIOMD0000000137.xml'
p259
ag6
aF0.047619047619047616
aF0.9523809523809523
aF21.0
aI01
aa(lp260
S'BIOMD0000000138.xml'
p261
ag9
aF0.0
aF0.0
aF1.0
aI01
aa(lp262
S'BIOMD0000000139.xml'
p263
ag6
aF0.2916666666666667
aF1.0
aF24.0
aI01
aa(lp264
S'BIOMD0000000140.xml'
p265
ag6
aF0.2916666666666667
aF1.0
aF24.0
aI01
aa(lp266
S'BIOMD0000000143.xml'
p267
ag6
aF0.11666666666666667
aF1.0
aF20.0
aI01
aa(lp268
S'BIOMD0000000144.xml'
p269
ag9
aF0.0
aF0.0
aF18.0
aI01
aa(lp270
S'BIOMD0000000145.xml'
p271
ag9
aF0.0
aF0.0
aF7.0
aI01
aa(lp272
S'BIOMD0000000146.xml'
p273
ag35
aF0.2314814814814815
aF0.9166666666666666
aF36.0
aI01
aa(lp274
S'BIOMD0000000147.xml'
p275
ag6
aF0.2916666666666667
aF1.0
aF24.0
aI01
aa(lp276
S'BIOMD0000000148.xml'
p277
ag9
aF0.0
aF0.0
aF7.0
aI01
aa(lp278
S'BIOMD0000000149.xml'
p279
ag12
aF0.19047619047619047
aF1.0
aF28.0
aI01
aa(lp280
S'BIOMD0000000150.xml'
p281
ag6
aF0.25
aF1.0
aF4.0
aI01
aa(lp282
S'BIOMD0000000151.xml'
p283
aS'b'
p284
aF0.303921568627451
aF0.9705882352941176
aF68.0
aI00
aa(lp285
S'BIOMD0000000152.xml'
p286
ag6
aF0.3072916666666667
aF1.0
aF64.0
aI01
aa(lp287
S'BIOMD0000000153.xml'
p288
ag6
aF0.3155555555555556
aF1.0
aF75.0
aI01
aa(lp289
S'BIOMD0000000154.xml'
p290
ag9
aF0.0
aF0.0
aF2.0
aI01
aa(lp291
S'BIOMD0000000155.xml'
p292
ag9
aF0.0
aF0.0
aF2.0
aI01
aa(lp293
S'BIOMD0000000156.xml'
p294
ag9
aF0.0
aF0.0
aF3.0
aI01
aa(lp295
S'BIOMD0000000157.xml'
p296
ag9
aF0.0
aF0.0
aF3.0
aI01
aa(lp297
S'BIOMD0000000158.xml'
p298
ag9
aF0.0
aF0.0
aF3.0
aI01
aa(lp299
S'BIOMD0000000159.xml'
p300
ag9
aF0.0
aF0.0
aF3.0
aI01
aa(lp301
S'BIOMD0000000160.xml'
p302
ag6
aF0.09333333333333334
aF0.8
aF25.0
aI01
aa(lp303
S'BIOMD0000000161.xml'
p304
ag6
aF0.21014492753623187
aF0.9565217391304348
aF46.0
aI01
aa(lp305
S'BIOMD0000000162.xml'
p306
ag6
aF0.22916666666666666
aF0.9375
aF32.0
aI01
aa(lp307
S'BIOMD0000000163.xml'
p308
ag12
aF0.1875
aF1.0
aF16.0
aI01
aa(lp309
S'BIOMD0000000164.xml'
p310
ag6
aF0.2948717948717949
aF0.8846153846153846
aF26.0
aI01
aa(lp311
S'BIOMD0000000165.xml'
p312
ag143
aF0.2882882882882883
aF0.972972972972973
aF37.0
aI00
aa(lp313
S'BIOMD0000000166.xml'
p314
ag9
aF0.0
aF0.0
aF3.0
aI01
aa(lp315
S'BIOMD0000000167.xml'
p316
aS'3'
p317
aF0.2222222222222222
aF0.7777777777777778
aF9.0
aI01
aa(lp318
S'BIOMD0000000168.xml'
p319
ag35
aF0.09523809523809523
aF0.8571428571428571
aF7.0
aI00
aa(lp320
S'BIOMD0000000169.xml'
p321
ag143
aF0.2727272727272727
aF1.0
aF11.0
aI00
aa(lp322
S'BIOMD0000000170.xml'
p323
ag9
aF0.0
aF0.0
aF7.0
aI01
aa(lp324
S'BIOMD0000000171.xml'
p325
ag143
aF0.19444444444444445
aF0.8333333333333334
aF12.0
aI00
aa(lp326
S'BIOMD0000000172.xml'
p327
ag12
aF0.08
aF0.96
aF25.0
aI01
aa(lp328
S'BIOMD0000000173.xml'
p329
ag6
aF0.32051282051282054
aF1.0
aF26.0
aI01
aa(lp330
S'BIOMD0000000174.xml'
p331
ag9
aF0.0
aF0.0
aF4.0
aI01
aa(lp332
S'BIOMD0000000175.xml'
p333
ag35
aF0.14166666666666666
aF0.9833333333333333
aF120.0
aI01
aa(lp334
S'BIOMD0000000176.xml'
p335
ag12
aF0.08
aF0.96
aF25.0
aI01
aa(lp336
S'BIOMD0000000177.xml'
p337
ag12
aF0.10714285714285714
aF0.9642857142857143
aF28.0
aI01
aa(lp338
S'BIOMD0000000178.xml'
p339
ag9
aF0.0
aF0.0
aF6.0
aI01
aa(lp340
S'BIOMD0000000179.xml'
p341
ag9
aF0.0
aF0.0
aF7.0
aI01
aa(lp342
S'BIOMD0000000180.xml'
p343
ag9
aF0.0
aF0.0
aF8.0
aI01
aa(lp344
S'BIOMD0000000181.xml'
p345
ag9
aF0.0
aF0.0
aF6.0
aI01
aa(lp346
S'BIOMD0000000182.xml'
p347
ag6
aF0.17117117117117117
aF0.8648648648648649
aF37.0
aI01
aa(lp348
S'BIOMD0000000183.xml'
p349
ag6
aF0.3333333333333333
aF1.0
aF67.0
aI01
aa(lp350
S'BIOMD0000000184.xml'
p351
ag9
aF0.0
aF0.0
aF3.0
aI01
aa(lp352
S'BIOMD0000000185.xml'
p353
ag9
aF0.0
aF0.0
aF8.0
aI01
aa(lp354
S'BIOMD0000000186.xml'
p355
ag6
aF0.3333333333333333
aF1.0
aF11.0
aI01
aa(lp356
S'BIOMD0000000187.xml'
p357
ag6
aF0.3333333333333333
aF1.0
aF11.0
aI01
aa(lp358
S'BIOMD0000000188.xml'
p359
ag12
aF0.16666666666666669
aF0.9
aF20.0
aI01
aa(lp360
S'BIOMD0000000189.xml'
p361
ag12
aF0.2222222222222222
aF0.8888888888888888
aF18.0
aI01
aa(lp362
S'BIOMD0000000190.xml'
p363
ag6
aF0.1212121212121212
aF1.0
aF11.0
aI01
aa(lp364
S'BIOMD0000000191.xml'
p365
ag9
aF0.0
aF0.0
aF3.0
aI01
aa(lp366
S'BIOMD0000000192.xml'
p367
ag6
aF0.23076923076923078
aF0.9230769230769231
aF13.0
aI01
aa(lp368
S'BIOMD0000000193.xml'
p369
ag6
aF0.3333333333333333
aF1.0
aF8.0
aI01
aa(lp370
S'BIOMD0000000194.xml'
p371
ag12
aF0.33333333333333337
aF1.0
aF5.0
aI01
aa(lp372
S'BIOMD0000000195.xml'
p373
ag9
aF0.0
aF0.0
aF11.0
aI01
aa(lp374
S'BIOMD0000000196.xml'
p375
ag143
aF0.2727272727272727
aF1.0
aF11.0
aI00
aa(lp376
S'BIOMD0000000197.xml'
p377
ag9
aF0.0
aF0.0
aF7.0
aI01
aa(lp378
S'BIOMD0000000198.xml'
p379
ag6
aF0.19444444444444445
aF0.8333333333333334
aF12.0
aI01
aa(lp380
S'BIOMD0000000199.xml'
p381
ag12
aF0.2
aF0.9333333333333333
aF15.0
aI01
aa(lp382
S'BIOMD0000000200.xml'
p383
ag35
aF0.30303030303030304
aF0.9545454545454546
aF22.0
aI01
aa(lp384
S'BIOMD0000000201.xml'
p385
ag35
aF0.06410256410256411
aF0.6538461538461539
aF26.0
aI01
aa(lp386
S'BIOMD0000000202.xml'
p387
ag9
aF0.0
aF0.0
aF9.0
aI01
aa(lp388
S'BIOMD0000000203.xml'
p389
ag6
aF0.08333333333333333
aF0.8333333333333334
aF12.0
aI01
aa(lp390
S'BIOMD0000000204.xml'
p391
ag6
aF0.08333333333333333
aF0.8333333333333334
aF12.0
aI01
aa(lp392
S'BIOMD0000000205.xml'
p393
ag12
aF0.29553264604810997
aF1.0
aF194.0
aI01
aa(lp394
S'BIOMD0000000206.xml'
p395
ag6
aF0.1851851851851852
aF1.0
aF9.0
aI01
aa(lp396
S'BIOMD0000000207.xml'
p397
ag9
aF0.0
aF0.0
aF6.0
aI01
aa(lp398
S'BIOMD0000000208.xml'
p399
ag9
aF0.0
aF0.0
aF6.0
aI01
aa(lp400
S'BIOMD0000000209.xml'
p401
ag9
aF0.0
aF0.0
aF20.0
aI01
aa(lp402
S'BIOMD0000000210.xml'
p403
ag9
aF0.0
aF0.0
aF18.0
aI01
aa(lp404
S'BIOMD0000000211.xml'
p405
ag6
aF0.037037037037037035
aF1.0
aF27.0
aI01
aa(lp406
S'BIOMD0000000212.xml'
p407
ag6
aF0.02150537634408602
aF0.45161290322580644
aF31.0
aI01
aa(lp408
S'BIOMD0000000213.xml'
p409
ag9
aF0.0
aF0.0
aF14.0
aI01
aa(lp410
S'BIOMD0000000214.xml'
p411
ag35
aF0.125
aF0.75
aF16.0
aI01
aa(lp412
S'BIOMD0000000215.xml'
p413
ag9
aF0.0
aF0.0
aF7.0
aI01
aa(lp414
S'BIOMD0000000216.xml'
p415
ag6
aF0.2222222222222222
aF0.8333333333333334
aF6.0
aI01
aa(lp416
S'BIOMD0000000217.xml'
p417
ag6
aF0.07575757575757576
aF1.0
aF22.0
aI01
aa(lp418
S'BIOMD0000000218.xml'
p419
ag6
aF0.07692307692307693
aF1.0
aF13.0
aI01
aa(lp420
S'BIOMD0000000219.xml'
p421
ag6
aF0.07692307692307693
aF1.0
aF13.0
aI01
aa(lp422
S'BIOMD0000000220.xml'
p423
ag6
aF0.3045977011494253
aF1.0
aF58.0
aI01
aa(lp424
S'BIOMD0000000221.xml'
p425
ag6
aF0.08333333333333333
aF1.0
aF12.0
aI01
aa(lp426
S'BIOMD0000000222.xml'
p427
ag6
aF0.08333333333333333
aF1.0
aF12.0
aI01
aa(lp428
S'BIOMD0000000223.xml'
p429
ag12
aF0.22480620155038758
aF0.9302325581395349
aF86.0
aI01
aa(lp430
S'BIOMD0000000224.xml'
p431
ag9
aF0.0
aF0.0
aF4.0
aI01
aa(lp432
S'BIOMD0000000225.xml'
p433
ag9
aF0.0
aF0.0
aF5.0
aI01
aa(lp434
S'BIOMD0000000226.xml'
p435
ag6
aF0.125
aF1.0
aF24.0
aI01
aa(lp436
S'BIOMD0000000227.xml'
p437
ag6
aF0.15555555555555556
aF1.0
aF60.0
aI01
aa(lp438
S'BIOMD0000000228.xml'
p439
ag35
aF0.1111111111111111
aF1.0
aF9.0
aI01
aa(lp440
S'BIOMD0000000229.xml'
p441
ag9
aF0.0
aF0.0
aF7.0
aI01
aa(lp442
S'BIOMD0000000230.xml'
p443
ag12
aF0.2948717948717949
aF1.0
aF26.0
aI01
aa(lp444
S'BIOMD0000000231.xml'
p445
ag6
aF0.2777777777777778
aF1.0
aF6.0
aI01
aa(lp446
S'BIOMD0000000232.xml'
p447
ag6
aF0.07142857142857142
aF1.0
aF14.0
aI01
aa(lp448
S'BIOMD0000000233.xml'
p449
ag9
aF0.0
aF0.0
aF4.0
aI01
aa(lp450
S'BIOMD0000000234.xml'
p451
ag9
aF0.0
aF0.0
aF1.0
aI01
aa(lp452
S'BIOMD0000000235.xml'
p453
ag6
aF0.012861736334405145
aF0.9453376205787781
aF622.0
aI01
aa(lp454
S'BIOMD0000000236.xml'
p455
ag6
aF0.09523809523809523
aF0.5714285714285714
aF7.0
aI01
aa(lp456
S'BIOMD0000000237.xml'
p457
ag35
aF0.25641025641025644
aF1.0
aF26.0
aI01
aa(lp458
S'BIOMD0000000239.xml'
p459
ag143
aF0.022598870056497175
aF1.0
aF59.0
aI01
aa(lp460
S'BIOMD0000000240.xml'
p461
ag35
aF0.16666666666666666
aF1.0
aF6.0
aI01
aa(lp462
S'BIOMD0000000241.xml'
p463
ag9
aF0.0
aF0.0
aF5.0
aI01
aa(lp464
S'BIOMD0000000242.xml'
p465
ag6
aF0.16666666666666666
aF1.0
aF6.0
aI01
aa(lp466
S'BIOMD0000000243.xml'
p467
ag12
aF0.3188405797101449
aF1.0
aF23.0
aI00
aa(lp468
S'BIOMD0000000244.xml'
p469
ag12
aF0.07092198581560284
aF1.0
aF47.0
aI01
aa(lp470
S'BIOMD0000000245.xml'
p471
ag12
aF0.21212121212121213
aF1.0
aF11.0
aI01
aa(lp472
S'BIOMD0000000246.xml'
p473
ag35
aF0.14942528735632182
aF0.6896551724137931
aF29.0
aI01
aa(lp474
S'BIOMD0000000247.xml'
p475
ag35
aF0.13978494623655913
aF0.967741935483871
aF31.0
aI01
aa(lp476
S'BIOMD0000000248.xml'
p477
ag6
aF0.07407407407407407
aF0.6666666666666666
aF9.0
aI01
aa(lp478
S'BIOMD0000000249.xml'
p479
ag35
aF0.14814814814814814
aF0.8888888888888888
aF9.0
aI01
aa(lp480
S'BIOMD0000000250.xml'
p481
ag6
aF0.1768707482993197
aF0.9591836734693877
aF49.0
aI01
aa(lp482
S'BIOMD0000000251.xml'
p483
ag35
aF0.1
aF0.9
aF10.0
aI01
aa(lp484
S'BIOMD0000000252.xml'
p485
ag6
aF0.16666666666666666
aF0.5
aF4.0
aI01
aa(lp486
S'BIOMD0000000253.xml'
p487
ag6
aF0.2222222222222222
aF0.8333333333333334
aF6.0
aI01
aa(lp488
S'BIOMD0000000254.xml'
p489
ag9
aF0.0
aF0.0
aF4.0
aI01
aa(lp490
S'BIOMD0000000255.xml'
p491
ag6
aF0.3260582010582011
aF1.0
aF504.0
aI01
aa(lp492
S'BIOMD0000000256.xml'
p493
ag35
aF0.2222222222222222
aF1.0
aF27.0
aI01
aa(lp494
S'BIOMD0000000257.xml'
p495
ag6
aF0.3333333333333333
aF1.0
aF11.0
aI01
aa(lp496
S'BIOMD0000000258.xml'
p497
ag9
aF0.0
aF0.0
aF3.0
aI01
aa(lp498
S'BIOMD0000000259.xml'
p499
ag9
aF0.0
aF0.0
aF17.0
aI01
aa(lp500
S'BIOMD0000000260.xml'
p501
ag9
aF0.0
aF0.0
aF17.0
aI01
aa(lp502
S'BIOMD0000000261.xml'
p503
ag9
aF0.0
aF0.0
aF17.0
aI01
aa(lp504
S'BIOMD0000000262.xml'
p505
ag6
aF0.30303030303030304
aF1.0
aF11.0
aI01
aa(lp506
S'BIOMD0000000263.xml'
p507
ag6
aF0.30303030303030304
aF1.0
aF11.0
aI01
aa(lp508
S'BIOMD0000000264.xml'
p509
ag6
aF0.3095238095238095
aF1.0
aF14.0
aI01
aa(lp510
S'BIOMD0000000265.xml'
p511
ag6
aF0.17391304347826086
aF1.0
aF23.0
aI01
aa(lp512
S'BIOMD0000000266.xml'
p513
ag9
aF0.0
aF0.0
aF8.0
aI01
aa(lp514
S'BIOMD0000000267.xml'
p515
ag9
aF0.0
aF0.0
aF4.0
aI01
aa(lp516
S'BIOMD0000000268.xml'
p517
ag9
aF0.0
aF0.0
aF44.0
aI01
aa(lp518
S'BIOMD0000000269.xml'
p519
ag12
aF0.1111111111111111
aF0.8333333333333334
aF18.0
aI00
aa(lp520
S'BIOMD0000000270.xml'
p521
ag6
aF0.20202020202020202
aF0.9696969696969697
aF33.0
aI01
aa(lp522
S'BIOMD0000000271.xml'
p523
ag12
aF0.2222222222222222
aF1.0
aF6.0
aI01
aa(lp524
S'BIOMD0000000272.xml'
p525
ag12
aF0.2222222222222222
aF1.0
aF6.0
aI01
aa(lp526
S'BIOMD0000000273.xml'
p527
ag12
aF0.12280701754385966
aF1.0
aF19.0
aI01
aa(lp528
S'BIOMD0000000274.xml'
p529
ag9
aF0.0
aF0.0
aF3.0
aI01
aa(lp530
S'BIOMD0000000275.xml'
p531
ag9
aF0.0
aF0.0
aF5.0
aI01
aa(lp532
S'BIOMD0000000276.xml'
p533
ag9
aF0.0
aF0.0
aF3.0
aI01
aa(lp534
S'BIOMD0000000277.xml'
p535
ag9
aF0.0
aF0.0
aF3.0
aI01
aa(lp536
S'BIOMD0000000278.xml'
p537
ag9
aF0.0
aF0.0
aF3.0
aI01
aa(lp538
S'BIOMD0000000279.xml'
p539
ag9
aF0.0
aF0.0
aF3.0
aI01
aa(lp540
S'BIOMD0000000281.xml'
p541
ag12
aF0.1875
aF0.96875
aF32.0
aI01
aa(lp542
S'BIOMD0000000282.xml'
p543
ag6
aF0.16666666666666666
aF1.0
aF6.0
aI01
aa(lp544
S'BIOMD0000000283.xml'
p545
ag6
aF0.25
aF1.0
aF4.0
aI01
aa(lp546
S'BIOMD0000000284.xml'
p547
ag9
aF0.0
aF0.0
aF9.0
aI01
aa(lp548
S'BIOMD0000000285.xml'
p549
ag12
aF0.2469135802469136
aF1.0
aF27.0
aI01
aa(lp550
S'BIOMD0000000286.xml'
p551
ag143
aF0.11299435028248588
aF0.9661016949152542
aF59.0
aI01
aa(lp552
S'BIOMD0000000287.xml'
p553
ag143
aF0.10144927536231885
aF0.9565217391304348
aF23.0
aI01
aa(lp554
S'BIOMD0000000288.xml'
p555
ag35
aF0.10526315789473684
aF0.7894736842105263
aF19.0
aI01
aa(lp556
S'BIOMD0000000289.xml'
p557
ag9
aF0.0
aF0.0
aF5.0
aI01
aa(lp558
S'BIOMD0000000290.xml'
p559
ag9
aF0.0
aF0.0
aF5.0
aI01
aa(lp560
S'BIOMD0000000291.xml'
p561
ag9
aF0.0
aF0.0
aF10.0
aI01
aa(lp562
S'BIOMD0000000292.xml'
p563
ag9
aF0.0
aF0.0
aF6.0
aI01
aa(lp564
S'BIOMD0000000293.xml'
p565
ag6
aF0.23529411764705882
aF1.0
aF136.0
aI01
aa(lp566
S'BIOMD0000000294.xml'
p567
ag9
aF0.0
aF0.0
aF11.0
aI01
aa(lp568
S'BIOMD0000000295.xml'
p569
ag35
aF0.26666666666666666
aF1.0
aF5.0
aI01
aa(lp570
S'BIOMD0000000296.xml'
p571
ag9
aF0.0
aF0.0
aF7.0
aI01
aa(lp572
S'BIOMD0000000297.xml'
p573
ag6
aF0.15789473684210525
aF1.0
aF19.0
aI01
aa(lp574
S'BIOMD0000000298.xml'
p575
ag9
aF0.0
aF0.0
aF10.0
aI01
aa(lp576
S'BIOMD0000000299.xml'
p577
ag9
aF0.0
aF0.0
aF3.0
aI01
aa(lp578
S'BIOMD0000000300.xml'
p579
ag35
aF0.041666666666666664
aF0.25
aF16.0
aI00
aa(lp580
S'BIOMD0000000301.xml'
p581
ag9
aF0.0
aF0.0
aF8.0
aI01
aa(lp582
S'BIOMD0000000303.xml'
p583
ag12
aF0.2857142857142857
aF0.9761904761904762
aF42.0
aI01
aa(lp584
S'BIOMD0000000304.xml'
p585
ag9
aF0.0
aF0.0
aF5.0
aI01
aa(lp586
S'BIOMD0000000305.xml'
p587
ag9
aF0.0
aF0.0
aF9.0
aI01
aa(lp588
S'BIOMD0000000306.xml'
p589
ag35
aF0.13333333333333333
aF0.8
aF5.0
aI01
aa(lp590
S'BIOMD0000000307.xml'
p591
ag35
aF0.13333333333333333
aF0.8
aF5.0
aI01
aa(lp592
S'BIOMD0000000308.xml'
p593
ag35
aF0.2222222222222222
aF0.8333333333333334
aF6.0
aI01
aa(lp594
S'BIOMD0000000309.xml'
p595
ag35
aF0.16666666666666666
aF0.75
aF4.0
aI01
aa(lp596
S'BIOMD0000000310.xml'
p597
ag35
aF0.16666666666666666
aF0.75
aF4.0
aI01
aa(lp598
S'BIOMD0000000311.xml'
p599
ag35
aF0.16666666666666666
aF0.75
aF4.0
aI01
aa(lp600
S'BIOMD0000000312.xml'
p601
ag9
aF0.0
aF0.0
aF3.0
aI01
aa(lp602
S'BIOMD0000000313.xml'
p603
ag6
aF0.08333333333333333
aF0.875
aF16.0
aI01
aa(lp604
S'BIOMD0000000314.xml'
p605
ag6
aF0.1111111111111111
aF0.8333333333333334
aF12.0
aI01
aa(lp606
S'BIOMD0000000315.xml'
p607
ag6
aF0.26666666666666666
aF1.0
aF20.0
aI01
aa(lp608
S'BIOMD0000000316.xml'
p609
ag9
aF0.0
aF0.0
aF3.0
aI01
aa(lp610
S'BIOMD0000000317.xml'
p611
ag9
aF0.0
aF0.0
aF4.0
aI01
aa(lp612
S'BIOMD0000000318.xml'
p613
ag6
aF0.14285714285714285
aF1.0
aF7.0
aI01
aa(lp614
S'BIOMD0000000319.xml'
p615
ag9
aF0.0
aF0.0
aF3.0
aI01
aa(lp616
S'BIOMD0000000320.xml'
p617
ag9
aF0.0
aF0.0
aF9.0
aI01
aa(lp618
S'BIOMD0000000321.xml'
p619
ag9
aF0.0
aF0.0
aF3.0
aI01
aa(lp620
S'BIOMD0000000322.xml'
p621
ag9
aF0.0
aF0.0
aF4.0
aI01
aa(lp622
S'BIOMD0000000323.xml'
p623
ag9
aF0.0
aF0.0
aF3.0
aI01
aa(lp624
S'BIOMD0000000325.xml'
p625
ag6
aF0.2777777777777778
aF1.0
aF6.0
aI01
aa(lp626
S'BIOMD0000000326.xml'
p627
ag12
aF0.27230046948356806
aF1.0
aF71.0
aI01
aa(lp628
S'BIOMD0000000327.xml'
p629
ag9
aF0.0
aF0.0
aF8.0
aI01
aa(lp630
S'BIOMD0000000328.xml'
p631
ag9
aF0.0
aF0.0
aF18.0
aI01
aa(lp632
S'BIOMD0000000329.xml'
p633
ag9
aF0.0
aF0.0
aF4.0
aI01
aa(lp634
S'BIOMD0000000330.xml'
p635
ag9
aF0.0
aF0.0
aF5.0
aI01
aa(lp636
S'BIOMD0000000331.xml'
p637
ag9
aF0.0
aF0.0
aF7.0
aI01
aa(lp638
S'BIOMD0000000332.xml'
p639
ag12
aF0.2564102564102564
aF0.9871794871794872
aF78.0
aI01
aa(lp640
S'BIOMD0000000333.xml'
p641
ag12
aF0.25925925925925924
aF1.0
aF54.0
aI01
aa(lp642
S'BIOMD0000000334.xml'
p643
ag12
aF0.2522522522522523
aF0.9864864864864865
aF74.0
aI01
aa(lp644
S'BIOMD0000000335.xml'
p645
ag6
aF0.3137254901960784
aF1.0
aF34.0
aI01
aa(lp646
S'BIOMD0000000336.xml'
p647
ag6
aF0.2592592592592593
aF1.0
aF18.0
aI01
aa(lp648
S'BIOMD0000000337.xml'
p649
ag9
aF0.0
aF0.0
aF3.0
aI01
aa(lp650
S'BIOMD0000000338.xml'
p651
ag12
aF0.17283950617283952
aF0.9444444444444444
aF54.0
aI01
aa(lp652
S'BIOMD0000000339.xml'
p653
ag12
aF0.17283950617283952
aF0.9444444444444444
aF54.0
aI01
aa(lp654
S'BIOMD0000000340.xml'
p655
ag12
aF0.17283950617283952
aF0.9444444444444444
aF54.0
aI01
aa(lp656
S'BIOMD0000000341.xml'
p657
ag9
aF0.0
aF0.0
aF3.0
aI01
aa(lp658
S'BIOMD0000000342.xml'
p659
ag6
aF0.15873015873015875
aF1.0
aF21.0
aI01
aa(lp660
S'BIOMD0000000343.xml'
p661
ag35
aF0.07692307692307693
aF0.23076923076923078
aF26.0
aI01
aa(lp662
S'BIOMD0000000344.xml'
p663
ag12
aF0.2469135802469136
aF1.0
aF54.0
aI01
aa(lp664
S'BIOMD0000000345.xml'
p665
ag35
aF0.15384615384615385
aF0.46153846153846156
aF13.0
aI01
aa(lp666
S'BIOMD0000000347.xml'
p667
ag6
aF0.02564102564102564
aF0.9615384615384616
aF26.0
aI01
aa(lp668
S'BIOMD0000000348.xml'
p669
ag9
aF0.0
aF0.0
aF7.0
aI01
aa(lp670
S'BIOMD0000000349.xml'
p671
ag9
aF0.0
aF0.0
aF7.0
aI01
aa(lp672
S'BIOMD0000000350.xml'
p673
ag9
aF0.0
aF0.0
aF14.0
aI01
aa(lp674
S'BIOMD0000000351.xml'
p675
ag6
aF0.2222222222222222
aF0.8333333333333334
aF6.0
aI01
aa(lp676
S'BIOMD0000000352.xml'
p677
ag6
aF0.2222222222222222
aF0.8333333333333334
aF6.0
aI01
aa(lp678
S'BIOMD0000000353.xml'
p679
ag9
aF0.0
aF0.0
aF28.0
aI01
aa(lp680
S'BIOMD0000000354.xml'
p681
ag9
aF0.0
aF0.0
aF6.0
aI01
aa(lp682
S'BIOMD0000000355.xml'
p683
ag9
aF0.0
aF0.0
aF9.0
aI01
aa(lp684
S'BIOMD0000000356.xml'
p685
ag12
aF0.09375
aF1.0
aF32.0
aI01
aa(lp686
S'BIOMD0000000357.xml'
p687
ag6
aF0.2962962962962963
aF1.0
aF9.0
aI01
aa(lp688
S'BIOMD0000000358.xml'
p689
ag9
aF0.0
aF0.0
aF12.0
aI01
aa(lp690
S'BIOMD0000000359.xml'
p691
ag6
aF0.3333333333333333
aF1.0
aF9.0
aI01
aa(lp692
S'BIOMD0000000360.xml'
p693
ag6
aF0.3333333333333333
aF1.0
aF9.0
aI01
aa(lp694
S'BIOMD0000000361.xml'
p695
ag6
aF0.3333333333333333
aF1.0
aF8.0
aI01
aa(lp696
S'BIOMD0000000362.xml'
p697
ag6
aF0.3137254901960784
aF1.0
aF34.0
aI01
aa(lp698
S'BIOMD0000000363.xml'
p699
ag9
aF0.0
aF0.0
aF4.0
aI01
aa(lp700
S'BIOMD0000000364.xml'
p701
ag6
aF0.2857142857142857
aF0.9285714285714286
aF14.0
aI01
aa(lp702
S'BIOMD0000000365.xml'
p703
ag6
aF0.28888888888888886
aF1.0
aF30.0
aI01
aa(lp704
S'BIOMD0000000366.xml'
p705
ag9
aF0.0
aF0.0
aF12.0
aI01
aa(lp706
S'BIOMD0000000367.xml'
p707
ag9
aF0.0
aF0.0
aF3.0
aI01
aa(lp708
S'BIOMD0000000368.xml'
p709
ag9
aF0.0
aF0.0
aF8.0
aI01
aa(lp710
S'BIOMD0000000369.xml'
p711
ag9
aF0.0
aF0.0
aF7.0
aI01
aa(lp712
S'BIOMD0000000370.xml'
p713
ag35
aF0.052083333333333336
aF0.15625
aF32.0
aI00
aa(lp714
S'BIOMD0000000371.xml'
p715
ag9
aF0.0
aF0.0
aF3.0
aI01
aa(lp716
S'BIOMD0000000372.xml'
p717
ag9
aF0.0
aF0.0
aF6.0
aI01
aa(lp718
S'BIOMD0000000373.xml'
p719
ag9
aF0.0
aF0.0
aF7.0
aI01
aa(lp720
S'BIOMD0000000374.xml'
p721
ag9
aF0.0
aF0.0
aF5.0
aI01
aa(lp722
S'BIOMD0000000375.xml'
p723
ag9
aF0.0
aF0.0
aF5.0
aI01
aa(lp724
S'BIOMD0000000376.xml'
p725
ag9
aF0.0
aF0.0
aF11.0
aI01
aa(lp726
S'BIOMD0000000377.xml'
p727
ag9
aF0.0
aF0.0
aF4.0
aI01
aa(lp728
S'BIOMD0000000378.xml'
p729
ag9
aF0.0
aF0.0
aF6.0
aI01
aa(lp730
S'BIOMD0000000379.xml'
p731
ag9
aF0.0
aF0.0
aF12.0
aI01
aa(lp732
S'BIOMD0000000380.xml'
p733
ag9
aF0.0
aF0.0
aF16.0
aI01
aa(lp734
S'BIOMD0000000381.xml'
p735
ag9
aF0.0
aF0.0
aF5.0
aI01
aa(lp736
S'BIOMD0000000382.xml'
p737
ag9
aF0.0
aF0.0
aF6.0
aI01
aa(lp738
S'BIOMD0000000383.xml'
p739
ag9
aF0.0
aF0.0
aF6.0
aI01
aa(lp740
S'BIOMD0000000384.xml'
p741
ag9
aF0.0
aF0.0
aF6.0
aI01
aa(lp742
S'BIOMD0000000385.xml'
p743
ag9
aF0.0
aF0.0
aF6.0
aI01
aa(lp744
S'BIOMD0000000386.xml'
p745
ag9
aF0.0
aF0.0
aF6.0
aI01
aa(lp746
S'BIOMD0000000387.xml'
p747
ag9
aF0.0
aF0.0
aF7.0
aI01
aa(lp748
S'BIOMD0000000388.xml'
p749
ag12
aF0.20833333333333334
aF1.0
aF8.0
aI01
aa(lp750
S'BIOMD0000000389.xml'
p751
ag12
aF0.18181818181818182
aF1.0
aF22.0
aI01
aa(lp752
S'BIOMD0000000390.xml'
p753
ag6
aF0.09090909090909091
aF0.9090909090909091
aF11.0
aI01
aa(lp754
S'BIOMD0000000391.xml'
p755
ag12
aF0.15151515151515152
aF0.9545454545454546
aF22.0
aI01
aa(lp756
S'BIOMD0000000392.xml'
p757
ag6
aF0.11949685534591195
aF0.6792452830188679
aF53.0
aI01
aa(lp758
S'BIOMD0000000393.xml'
p759
ag12
aF0.10344827586206896
aF0.7241379310344828
aF58.0
aI01
aa(lp760
S'BIOMD0000000394.xml'
p761
ag6
aF0.05797101449275362
aF0.8260869565217391
aF23.0
aI01
aa(lp762
S'BIOMD0000000395.xml'
p763
ag6
aF0.21739130434782608
aF0.9130434782608695
aF23.0
aI01
aa(lp764
S'BIOMD0000000396.xml'
p765
ag6
aF0.17592592592592593
aF0.8055555555555556
aF36.0
aI01
aa(lp766
S'BIOMD0000000397.xml'
p767
ag6
aF0.26
aF0.98
aF50.0
aI01
aa(lp768
S'BIOMD0000000398.xml'
p769
ag6
aF0.2469135802469136
aF0.8148148148148148
aF27.0
aI01
aa(lp770
S'BIOMD0000000399.xml'
p771
ag12
aF0.30333333333333334
aF0.94
aF100.0
aI00
aa(lp772
S'BIOMD0000000400.xml'
p773
ag100
aF0.05128205128205128
aF0.15384615384615385
aF13.0
aI01
aa(lp774
S'BIOMD0000000401.xml'
p775
ag9
aF0.0
aF0.0
aF3.0
aI01
aa(lp776
S'BIOMD0000000402.xml'
p777
ag9
aF0.0
aF0.0
aF4.0
aI01
aa(lp778
S'BIOMD0000000403.xml'
p779
ag9
aF0.0
aF0.0
aF4.0
aI01
aa(lp780
S'BIOMD0000000404.xml'
p781
ag35
aF0.3103448275862069
aF0.9655172413793104
aF29.0
aI01
aa(lp782
S'BIOMD0000000405.xml'
p783
ag6
aF0.2777777777777778
aF0.8333333333333334
aF6.0
aI01
aa(lp784
S'BIOMD0000000406.xml'
p785
ag12
aF0.06802721088435375
aF0.8775510204081632
aF49.0
aI01
aa(lp786
S'BIOMD0000000407.xml'
p787
ag6
aF0.20567375886524822
aF1.0
aF47.0
aI01
aa(lp788
S'BIOMD0000000408.xml'
p789
ag6
aF0.33333333333333337
aF1.0
aF10.0
aI01
aa(lp790
S'BIOMD0000000409.xml'
p791
ag143
aF0.19444444444444445
aF0.9166666666666666
aF24.0
aI01
aa.